target datalayout = "e-m:e-p270:32:32-p271:32:32-p272:64:64-i64:64-i128:128-f80:128-n8:16:32:64-S128"
target triple = "x86_64-pc-linux-gnu"

%struct.Vec_Str_t_ = type { i32, i32, ptr }
%struct.Vec_Int_t_ = type { i32, i32, ptr }
%struct.Acb_Ntk_t_ = type { ptr, i32, i32, i32, i8, %struct.Vec_Int_t_, %struct.Vec_Int_t_, %struct.Vec_Int_t_, %struct.Vec_Int_t_, i32, i32, i32, i32, i32, %struct.Vec_Str_t_, %struct.Vec_Int_t_, %struct.Vec_Int_t_, %struct.Vec_Int_t_, %struct.Vec_Int_t_, %struct.Vec_Int_t_, %struct.Vec_Wrd_t_, %struct.Vec_Int_t_, %struct.Vec_Int_t_, %struct.Vec_Int_t_, %struct.Vec_Int_t_, %struct.Vec_Int_t_, %struct.Vec_Int_t_, %struct.Vec_Int_t_, %struct.Vec_Int_t_, %struct.Vec_Int_t_, %struct.Vec_Int_t_, %struct.Vec_Int_t_, %struct.Vec_Int_t_, %struct.Vec_Flt_t_, %struct.Vec_Wec_t_, %struct.Vec_Wec_t_, %struct.Vec_Str_t_, %struct.Vec_Int_t_, ptr, %struct.Vec_Int_t_, %struct.Vec_Int_t_, %struct.Vec_Int_t_, %struct.Vec_Int_t_ }
%struct.Vec_Wrd_t_ = type { i32, i32, ptr }
%struct.Vec_Flt_t_ = type { i32, i32, ptr }
%struct.Vec_Wec_t_ = type { i32, i32, ptr }

; Function Attrs: nounwind uwtable
define internal i32 @Vec_IntEntry(ptr noundef %0, i32 noundef %1) #0 {
  %3 = alloca ptr, align 8
  %4 = alloca i32, align 4
  store ptr %0, ptr %3, align 8
  store i32 %1, ptr %4, align 4
  %5 = load ptr, ptr %3, align 8
  %6 = getelementptr inbounds %struct.Vec_Int_t_, ptr %5, i32 0, i32 2
  %7 = load ptr, ptr %6, align 8
  %8 = load i32, ptr %4, align 4
  %9 = sext i32 %8 to i64
  %10 = getelementptr inbounds i32, ptr %7, i64 %9
  %11 = load i32, ptr %10, align 4
  ret i32 %11
}

; Function Attrs: nounwind uwtable
define internal signext i8 @Vec_StrEntry(ptr noundef %0, i32 noundef %1) #0 {
  %3 = alloca ptr, align 8
  %4 = alloca i32, align 4
  store ptr %0, ptr %3, align 8
  store i32 %1, ptr %4, align 4
  %5 = load ptr, ptr %3, align 8
  %6 = getelementptr inbounds %struct.Vec_Str_t_, ptr %5, i32 0, i32 2
  %7 = load ptr, ptr %6, align 8
  %8 = load i32, ptr %4, align 4
  %9 = sext i32 %8 to i64
  %10 = getelementptr inbounds i8, ptr %7, i64 %9
  %11 = load i8, ptr %10, align 1
  ret i8 %11
}

; Function Attrs: nounwind uwtable
define internal i32 @Acb_ObjTravId(ptr noundef %0, i32 noundef %1) #0 {
  %3 = alloca ptr, align 8
  %4 = alloca i32, align 4
  store ptr %0, ptr %3, align 8
  store i32 %1, ptr %4, align 4
  %5 = load ptr, ptr %3, align 8
  %6 = getelementptr inbounds %struct.Acb_Ntk_t_, ptr %5, i32 0, i32 23
  %7 = load i32, ptr %4, align 4
  %8 = call i32 @Vec_IntEntry(ptr noundef %6, i32 noundef %7)
  ret i32 %8
}

; Function Attrs: nounwind uwtable
define internal ptr @Vec_IntEntryP(ptr noundef %0, i32 noundef %1) #0 {
  %3 = alloca ptr, align 8
  %4 = alloca i32, align 4
  store ptr %0, ptr %3, align 8
  store i32 %1, ptr %4, align 4
  %5 = load ptr, ptr %3, align 8
  %6 = getelementptr inbounds %struct.Vec_Int_t_, ptr %5, i32 0, i32 2
  %7 = load ptr, ptr %6, align 8
  %8 = load i32, ptr %4, align 4
  %9 = sext i32 %8 to i64
  %10 = getelementptr inbounds i32, ptr %7, i64 %9
  ret ptr %10
}

; Function Attrs: nounwind uwtable
define internal i32 @Acb_ObjFanOffset(ptr noundef %0, i32 noundef %1) #0 {
  %3 = alloca ptr, align 8
  %4 = alloca i32, align 4
  store ptr %0, ptr %3, align 8
  store i32 %1, ptr %4, align 4
  %5 = load ptr, ptr %3, align 8
  %6 = getelementptr inbounds %struct.Acb_Ntk_t_, ptr %5, i32 0, i32 15
  %7 = load i32, ptr %4, align 4
  %8 = call i32 @Vec_IntEntry(ptr noundef %6, i32 noundef %7)
  ret i32 %8
}

; Function Attrs: nounwind uwtable
define internal void @Vec_IntGrow(ptr noundef %0, i32 noundef %1) #0 {
  %3 = alloca ptr, align 8
  %4 = alloca i32, align 4
  store ptr %0, ptr %3, align 8
  store i32 %1, ptr %4, align 4
  %5 = load ptr, ptr %3, align 8
  %6 = getelementptr inbounds %struct.Vec_Int_t_, ptr %5, i32 0, i32 0
  %7 = load i32, ptr %6, align 8
  %8 = load i32, ptr %4, align 4
  %9 = icmp sge i32 %7, %8
  br i1 %9, label %10, label %11

10:                                               ; preds = %2
  br label %36

11:                                               ; preds = %2
  %12 = load ptr, ptr %3, align 8
  %13 = getelementptr inbounds %struct.Vec_Int_t_, ptr %12, i32 0, i32 2
  %14 = load ptr, ptr %13, align 8
  %15 = icmp ne ptr %14, null
  br i1 %15, label %16, label %24

16:                                               ; preds = %11
  %17 = load ptr, ptr %3, align 8
  %18 = getelementptr inbounds %struct.Vec_Int_t_, ptr %17, i32 0, i32 2
  %19 = load ptr, ptr %18, align 8
  %20 = load i32, ptr %4, align 4
  %21 = sext i32 %20 to i64
  %22 = mul i64 4, %21
  %23 = call ptr @realloc(ptr noundef %19, i64 noundef %22) #14
  br label %29

24:                                               ; preds = %11
  %25 = load i32, ptr %4, align 4
  %26 = sext i32 %25 to i64
  %27 = mul i64 4, %26
  %28 = call noalias ptr @malloc(i64 noundef %27) #11
  br label %29

29:                                               ; preds = %24, %16
  %30 = phi ptr [ %23, %16 ], [ %28, %24 ]
  %31 = load ptr, ptr %3, align 8
  %32 = getelementptr inbounds %struct.Vec_Int_t_, ptr %31, i32 0, i32 2
  store ptr %30, ptr %32, align 8
  %33 = load i32, ptr %4, align 4
  %34 = load ptr, ptr %3, align 8
  %35 = getelementptr inbounds %struct.Vec_Int_t_, ptr %34, i32 0, i32 0
  store i32 %33, ptr %35, align 8
  br label %36

36:                                               ; preds = %29, %10
  ret void
}

; Function Attrs: nounwind uwtable
define internal i32 @Acb_ObjType(ptr noundef %0, i32 noundef %1) #0 {
  %3 = alloca ptr, align 8
  %4 = alloca i32, align 4
  store ptr %0, ptr %3, align 8
  store i32 %1, ptr %4, align 4
  %5 = load ptr, ptr %3, align 8
  %6 = getelementptr inbounds %struct.Acb_Ntk_t_, ptr %5, i32 0, i32 14
  %7 = load i32, ptr %4, align 4
  %8 = call signext i8 @Vec_StrEntry(ptr noundef %6, i32 noundef %7)
  %9 = zext i8 %8 to i32
  ret i32 %9
}

; Function Attrs: nounwind uwtable
define internal void @Vec_IntWriteEntry(ptr noundef %0, i32 noundef %1, i32 noundef %2) #0 {
  %4 = alloca ptr, align 8
  %5 = alloca i32, align 4
  %6 = alloca i32, align 4
  store ptr %0, ptr %4, align 8
  store i32 %1, ptr %5, align 4
  store i32 %2, ptr %6, align 4
  %7 = load i32, ptr %6, align 4
  %8 = load ptr, ptr %4, align 8
  %9 = getelementptr inbounds %struct.Vec_Int_t_, ptr %8, i32 0, i32 2
  %10 = load ptr, ptr %9, align 8
  %11 = load i32, ptr %5, align 4
  %12 = sext i32 %11 to i64
  %13 = getelementptr inbounds i32, ptr %10, i64 %12
  store i32 %7, ptr %13, align 4
  ret void
}

; Function Attrs: nounwind uwtable
define internal i32 @Acb_ObjIsTravIdCur(ptr noundef %0, i32 noundef %1) #0 {
  %3 = alloca ptr, align 8
  %4 = alloca i32, align 4
  store ptr %0, ptr %3, align 8
  store i32 %1, ptr %4, align 4
  %5 = load ptr, ptr %3, align 8
  %6 = load i32, ptr %4, align 4
  %7 = call i32 @Acb_ObjTravId(ptr noundef %5, i32 noundef %6)
  %8 = load ptr, ptr %3, align 8
  %9 = getelementptr inbounds %struct.Acb_Ntk_t_, ptr %8, i32 0, i32 11
  %10 = load i32, ptr %9, align 8
  %11 = icmp eq i32 %7, %10
  %12 = zext i1 %11 to i32
  ret i32 %12
}

; Function Attrs: nounwind uwtable
define internal ptr @Acb_ObjFanins(ptr noundef %0, i32 noundef %1) #0 {
  %3 = alloca ptr, align 8
  %4 = alloca i32, align 4
  store ptr %0, ptr %3, align 8
  store i32 %1, ptr %4, align 4
  %5 = load ptr, ptr %3, align 8
  %6 = getelementptr inbounds %struct.Acb_Ntk_t_, ptr %5, i32 0, i32 16
  %7 = load ptr, ptr %3, align 8
  %8 = load i32, ptr %4, align 4
  %9 = call i32 @Acb_ObjFanOffset(ptr noundef %7, i32 noundef %8)
  %10 = call ptr @Vec_IntEntryP(ptr noundef %6, i32 noundef %9)
  ret ptr %10
}

; Function Attrs: nounwind uwtable
define internal void @Vec_IntPush(ptr noundef %0, i32 noundef %1) #0 {
  %3 = alloca ptr, align 8
  %4 = alloca i32, align 4
  store ptr %0, ptr %3, align 8
  store i32 %1, ptr %4, align 4
  %5 = load ptr, ptr %3, align 8
  %6 = getelementptr inbounds %struct.Vec_Int_t_, ptr %5, i32 0, i32 1
  %7 = load i32, ptr %6, align 4
  %8 = load ptr, ptr %3, align 8
  %9 = getelementptr inbounds %struct.Vec_Int_t_, ptr %8, i32 0, i32 0
  %10 = load i32, ptr %9, align 8
  %11 = icmp eq i32 %7, %10
  br i1 %11, label %12, label %26

12:                                               ; preds = %2
  %13 = load ptr, ptr %3, align 8
  %14 = getelementptr inbounds %struct.Vec_Int_t_, ptr %13, i32 0, i32 0
  %15 = load i32, ptr %14, align 8
  %16 = icmp slt i32 %15, 16
  br i1 %16, label %17, label %19

17:                                               ; preds = %12
  %18 = load ptr, ptr %3, align 8
  call void @Vec_IntGrow(ptr noundef %18, i32 noundef 16)
  br label %25

19:                                               ; preds = %12
  %20 = load ptr, ptr %3, align 8
  %21 = load ptr, ptr %3, align 8
  %22 = getelementptr inbounds %struct.Vec_Int_t_, ptr %21, i32 0, i32 0
  %23 = load i32, ptr %22, align 8
  %24 = mul nsw i32 2, %23
  call void @Vec_IntGrow(ptr noundef %20, i32 noundef %24)
  br label %25

25:                                               ; preds = %19, %17
  br label %26

26:                                               ; preds = %25, %2
  %27 = load i32, ptr %4, align 4
  %28 = load ptr, ptr %3, align 8
  %29 = getelementptr inbounds %struct.Vec_Int_t_, ptr %28, i32 0, i32 2
  %30 = load ptr, ptr %29, align 8
  %31 = load ptr, ptr %3, align 8
  %32 = getelementptr inbounds %struct.Vec_Int_t_, ptr %31, i32 0, i32 1
  %33 = load i32, ptr %32, align 4
  %34 = add nsw i32 %33, 1
  store i32 %34, ptr %32, align 4
  %35 = sext i32 %33 to i64
  %36 = getelementptr inbounds i32, ptr %30, i64 %35
  store i32 %27, ptr %36, align 4
  ret void
}

; Function Attrs: nounwind uwtable
define internal i32 @Acb_ObjCioId(ptr noundef %0, i32 noundef %1) #0 {
  %3 = alloca ptr, align 8
  %4 = alloca i32, align 4
  store ptr %0, ptr %3, align 8
  store i32 %1, ptr %4, align 4
  %5 = load ptr, ptr %3, align 8
  %6 = load i32, ptr %4, align 4
  %7 = call ptr @Acb_ObjFanins(ptr noundef %5, i32 noundef %6)
  %8 = getelementptr inbounds i32, ptr %7, i64 2
  %9 = load i32, ptr %8, align 4
  ret i32 %9
}

; Function Attrs: nounwind uwtable
define internal i32 @Acb_ObjIsCi(ptr noundef %0, i32 noundef %1) #0 {
  %3 = alloca ptr, align 8
  %4 = alloca i32, align 4
  store ptr %0, ptr %3, align 8
  store i32 %1, ptr %4, align 4
  %5 = load ptr, ptr %3, align 8
  %6 = load i32, ptr %4, align 4
  %7 = call i32 @Acb_ObjType(ptr noundef %5, i32 noundef %6)
  %8 = icmp eq i32 %7, 3
  %9 = zext i1 %8 to i32
  ret i32 %9
}

; Function Attrs: nounwind uwtable
define internal i32 @Acb_ObjSetTravIdCur(ptr noundef %0, i32 noundef %1) #0 {
  %3 = alloca ptr, align 8
  %4 = alloca i32, align 4
  %5 = alloca i32, align 4
  store ptr %0, ptr %3, align 8
  store i32 %1, ptr %4, align 4
  %6 = load ptr, ptr %3, align 8
  %7 = load i32, ptr %4, align 4
  %8 = call i32 @Acb_ObjIsTravIdCur(ptr noundef %6, i32 noundef %7)
  store i32 %8, ptr %5, align 4
  %9 = load ptr, ptr %3, align 8
  %10 = getelementptr inbounds %struct.Acb_Ntk_t_, ptr %9, i32 0, i32 23
  %11 = load i32, ptr %4, align 4
  %12 = load ptr, ptr %3, align 8
  %13 = getelementptr inbounds %struct.Acb_Ntk_t_, ptr %12, i32 0, i32 11
  %14 = load i32, ptr %13, align 8
  call void @Vec_IntWriteEntry(ptr noundef %10, i32 noundef %11, i32 noundef %14)
  %15 = load i32, ptr %5, align 4
  ret i32 %15
}

; Function Attrs: nounwind uwtable
define void @Acb_NtkFindSupp_rec(ptr noundef %0, i32 noundef %1, ptr noundef %2) #0 {
  %4 = alloca ptr, align 8
  %5 = alloca i32, align 4
  %6 = alloca ptr, align 8
  %7 = alloca ptr, align 8
  %8 = alloca i32, align 4
  %9 = alloca i32, align 4
  store ptr %0, ptr %4, align 8
  store i32 %1, ptr %5, align 4
  store ptr %2, ptr %6, align 8
  %10 = load ptr, ptr %4, align 8
  %11 = load i32, ptr %5, align 4
  %12 = call i32 @Acb_ObjSetTravIdCur(ptr noundef %10, i32 noundef %11)
  %13 = icmp ne i32 %12, 0
  br i1 %13, label %14, label %15

14:                                               ; preds = %3
  br label %52

15:                                               ; preds = %3
  %16 = load ptr, ptr %4, align 8
  %17 = load i32, ptr %5, align 4
  %18 = call i32 @Acb_ObjIsCi(ptr noundef %16, i32 noundef %17)
  %19 = icmp ne i32 %18, 0
  br i1 %19, label %20, label %25

20:                                               ; preds = %15
  %21 = load ptr, ptr %6, align 8
  %22 = load ptr, ptr %4, align 8
  %23 = load i32, ptr %5, align 4
  %24 = call i32 @Acb_ObjCioId(ptr noundef %22, i32 noundef %23)
  call void @Vec_IntPush(ptr noundef %21, i32 noundef %24)
  br label %52

25:                                               ; preds = %15
  store i32 0, ptr %9, align 4
  %26 = load ptr, ptr %4, align 8
  %27 = load i32, ptr %5, align 4
  %28 = call ptr @Acb_ObjFanins(ptr noundef %26, i32 noundef %27)
  store ptr %28, ptr %7, align 8
  br label %29

29:                                               ; preds = %48, %25
  %30 = load i32, ptr %9, align 4
  %31 = load ptr, ptr %7, align 8
  %32 = getelementptr inbounds i32, ptr %31, i64 0
  %33 = load i32, ptr %32, align 4
  %34 = icmp slt i32 %30, %33
  br i1 %34, label %35, label %42

35:                                               ; preds = %29
  %36 = load ptr, ptr %7, align 8
  %37 = load i32, ptr %9, align 4
  %38 = add nsw i32 %37, 1
  %39 = sext i32 %38 to i64
  %40 = getelementptr inbounds i32, ptr %36, i64 %39
  %41 = load i32, ptr %40, align 4
  store i32 %41, ptr %8, align 4
  br label %42

42:                                               ; preds = %35, %29
  %43 = phi i1 [ false, %29 ], [ true, %35 ]
  br i1 %43, label %44, label %51

44:                                               ; preds = %42
  %45 = load ptr, ptr %4, align 8
  %46 = load i32, ptr %8, align 4
  %47 = load ptr, ptr %6, align 8
  call void @Acb_NtkFindSupp_rec(ptr noundef %45, i32 noundef %46, ptr noundef %47)
  br label %48

48:                                               ; preds = %44
  %49 = load i32, ptr %9, align 4
  %50 = add nsw i32 %49, 1
  store i32 %50, ptr %9, align 4
  br label %29, !llvm.loop !48

51:                                               ; preds = %42
  br label %52

52:                                               ; preds = %51, %20, %14
  ret void
}