; Function Attrs: nounwind uwtable
define void @Acb_NtkFindSupp_rec(ptr noundef readonly captures(none) %0, i32 noundef %1, ptr noundef captures(none) %2) local_unnamed_addr #0 {
  %4 = getelementptr i8, ptr %0, i64 96
  %.val19 = load i32, ptr %4, align 8
  %5 = getelementptr i8, ptr %0, i64 264
  %.val20 = load ptr, ptr %5, align 8
  %6 = sext i32 %1 to i64
  %7 = getelementptr inbounds i32, ptr %.val20, i64 %6
  %8 = load i32, ptr %7, align 4
  %.not = icmp eq i32 %8, %.val19
  store i32 %.val19, ptr %7, align 4
  br i1 %.not, label %.critedge, label %9

9:                                                ; preds = %3
  %10 = getelementptr i8, ptr %0, i64 120
  %.val = load ptr, ptr %10, align 8
  %11 = getelementptr inbounds i8, ptr %.val, i64 %6
  %12 = load i8, ptr %11, align 1
  %.not23 = icmp eq i8 %12, 3
  %13 = getelementptr i8, ptr %0, i64 136
  %.val21 = load ptr, ptr %13, align 8
  %14 = getelementptr i8, ptr %0, i64 152
  %.val22 = load ptr, ptr %14, align 8
  %15 = getelementptr inbounds i32, ptr %.val21, i64 %6
  %16 = load i32, ptr %15, align 4
  %17 = sext i32 %16 to i64
  %18 = getelementptr inbounds i32, ptr %.val22, i64 %17
  br i1 %.not23, label %19, label %53

19:                                               ; preds = %9
  %20 = getelementptr inbounds nuw i8, ptr %18, i64 8
  %21 = load i32, ptr %20, align 4
  %22 = getelementptr inbounds nuw i8, ptr %2, i64 4
  %23 = load i32, ptr %22, align 4
  %24 = load i32, ptr %2, align 8
  %25 = icmp eq i32 %23, %24
  br i1 %25, label %26, label %.Vec_IntGrow.exit10_crit_edge.i

.Vec_IntGrow.exit10_crit_edge.i:                  ; preds = %19
  %.phi.trans.insert.i = getelementptr inbounds nuw i8, ptr %2, i64 8
  %.pre.i = load ptr, ptr %.phi.trans.insert.i, align 8
  br label %Vec_IntPush.exit

26:                                               ; preds = %19
  %27 = icmp slt i32 %23, 16
  br i1 %27, label %28, label %36

28:                                               ; preds = %26
  %29 = getelementptr inbounds nuw i8, ptr %2, i64 8
  %30 = load ptr, ptr %29, align 8
  %.not9.i.i = icmp eq ptr %30, null
  br i1 %.not9.i.i, label %33, label %31

31:                                               ; preds = %28
  %32 = tail call dereferenceable_or_null(64) ptr @realloc(ptr noundef nonnull %30, i64 noundef 64) #30
  br label %Vec_IntGrow.exit.i

33:                                               ; preds = %28
  %34 = tail call noalias dereferenceable_or_null(64) ptr @malloc(i64 noundef 64) #29
  br label %Vec_IntGrow.exit.i

Vec_IntGrow.exit.i:                               ; preds = %33, %31
  %35 = phi ptr [ %32, %31 ], [ %34, %33 ]
  store ptr %35, ptr %29, align 8
  store i32 16, ptr %2, align 8
  br label %Vec_IntPush.exit

36:                                               ; preds = %26
  %37 = shl nuw nsw i32 %23, 1
  %38 = getelementptr inbounds nuw i8, ptr %2, i64 8
  %39 = load ptr, ptr %38, align 8
  %.not9.i9.i = icmp eq ptr %39, null
  %40 = zext nneg i32 %37 to i64
  %41 = shl nuw nsw i64 %40, 2
  br i1 %.not9.i9.i, label %44, label %42

42:                                               ; preds = %36
  %43 = tail call ptr @realloc(ptr noundef nonnull %39, i64 noundef %41) #30
  br label %46

44:                                               ; preds = %36
  %45 = tail call noalias ptr @malloc(i64 noundef %41) #29
  br label %46

46:                                               ; preds = %44, %42
  %47 = phi ptr [ %43, %42 ], [ %45, %44 ]
  store ptr %47, ptr %38, align 8
  store i32 %37, ptr %2, align 8
  br label %Vec_IntPush.exit

Vec_IntPush.exit:                                 ; preds = %.Vec_IntGrow.exit10_crit_edge.i, %Vec_IntGrow.exit.i, %46
  %48 = phi ptr [ %.pre.i, %.Vec_IntGrow.exit10_crit_edge.i ], [ %47, %46 ], [ %35, %Vec_IntGrow.exit.i ]
  %49 = load i32, ptr %22, align 4
  %50 = add nsw i32 %49, 1
  store i32 %50, ptr %22, align 4
  %51 = sext i32 %49 to i64
  %52 = getelementptr inbounds i32, ptr %48, i64 %51
  store i32 %21, ptr %52, align 4
  br label %.critedge

53:                                               ; preds = %9
  %54 = load i32, ptr %18, align 4
  %55 = icmp sgt i32 %54, 0
  br i1 %55, label %.lr.ph, label %.critedge

.lr.ph:                                           ; preds = %53, %.lr.ph
  %indvars.iv = phi i64 [ %indvars.iv.next, %.lr.ph ], [ 0, %53 ]
  %indvars.iv.next = add nuw nsw i64 %indvars.iv, 1
  %56 = getelementptr inbounds nuw i32, ptr %18, i64 %indvars.iv.next
  %57 = load i32, ptr %56, align 4
  tail call void @Acb_NtkFindSupp_rec(ptr noundef %0, i32 noundef %57, ptr noundef %2)
  %58 = load i32, ptr %18, align 4
  %59 = sext i32 %58 to i64
  %60 = icmp slt i64 %indvars.iv.next, %59
  br i1 %60, label %.lr.ph, label %.critedge, !llvm.loop !50

.critedge:                                        ; preds = %.lr.ph, %53, %3, %Vec_IntPush.exit
  ret void
}